; ModuleID = '12/1556.c'
source_filename = "12/1556.c"
target datalayout = "e-m:e-p270:32:32-p271:32:32-p272:64:64-i64:64-f80:128-n8:16:32:64-S128"
target triple = "x86_64-pc-linux-gnu"

@.str = private unnamed_addr constant [3 x i8] c"%d\00", align 1
@.str.1 = private unnamed_addr constant [4 x i8] c"%d\0A\00", align 1

; Function Attrs: noinline nounwind uwtable
define dso_local i32 @main() #0 {
  %1 = alloca i32, align 4
  %2 = alloca i32, align 4
  %3 = alloca i32, align 4
  %4 = alloca i32, align 4
  %5 = alloca i32, align 4
  %6 = alloca [20 x i32], align 16
  store i32 0, i32* %1, align 4
  store i32 0, i32* %2, align 4
  store i32 0, i32* %3, align 4
  store i32 0, i32* %4, align 4
  store i32 0, i32* %5, align 4
  br label %7

7:                                                ; preds = %81, %0
  %8 = load i32, i32* %2, align 4
  %9 = sext i32 %8 to i64
  %10 = getelementptr inbounds [20 x i32], [20 x i32]* %6, i64 0, i64 %9
  %11 = call i32 (i8*, ...) @__isoc99_scanf(i8* getelementptr inbounds ([3 x i8], [3 x i8]* @.str, i64 0, i64 0), i32* %10)
  %12 = load i32, i32* %2, align 4
  %13 = sext i32 %12 to i64
  %14 = getelementptr inbounds [20 x i32], [20 x i32]* %6, i64 0, i64 %13
  %15 = load i32, i32* %14, align 4
  %16 = icmp ne i32 %15, -1
  br i1 %16, label %17, label %84

17:                                               ; preds = %7
  br label %18

18:                                               ; preds = %30, %17
  %19 = load i32, i32* %2, align 4
  %20 = add nsw i32 %19, 1
  %21 = sext i32 %20 to i64
  %22 = getelementptr inbounds [20 x i32], [20 x i32]* %6, i64 0, i64 %21
  %23 = call i32 (i8*, ...) @__isoc99_scanf(i8* getelementptr inbounds ([3 x i8], [3 x i8]* @.str, i64 0, i64 0), i32* %22)
  %24 = load i32, i32* %2, align 4
  %25 = add nsw i32 %24, 1
  %26 = sext i32 %25 to i64
  %27 = getelementptr inbounds [20 x i32], [20 x i32]* %6, i64 0, i64 %26
  %28 = load i32, i32* %27, align 4
  %29 = icmp ne i32 %28, 0
  br i1 %29, label %30, label %33

30:                                               ; preds = %18
  %31 = load i32, i32* %2, align 4
  %32 = add nsw i32 %31, 1
  store i32 %32, i32* %2, align 4
  br label %18

33:                                               ; preds = %18
  store i32 0, i32* %5, align 4
  br label %34

34:                                               ; preds = %78, %33
  %35 = load i32, i32* %5, align 4
  %36 = sext i32 %35 to i64
  %37 = getelementptr inbounds [20 x i32], [20 x i32]* %6, i64 0, i64 %36
  %38 = load i32, i32* %37, align 4
  %39 = icmp ne i32 %38, 0
  br i1 %39, label %40, label %81

40:                                               ; preds = %34
  %41 = load i32, i32* %5, align 4
  store i32 %41, i32* %3, align 4
  br label %42

42:                                               ; preds = %74, %40
  %43 = load i32, i32* %3, align 4
  %44 = sext i32 %43 to i64
  %45 = getelementptr inbounds [20 x i32], [20 x i32]* %6, i64 0, i64 %44
  %46 = load i32, i32* %45, align 4
  %47 = icmp ne i32 %46, 0
  br i1 %47, label %48, label %77

48:                                               ; preds = %42
  %49 = load i32, i32* %5, align 4
  %50 = sext i32 %49 to i64
  %51 = getelementptr inbounds [20 x i32], [20 x i32]* %6, i64 0, i64 %50
  %52 = load i32, i32* %51, align 4
  %53 = load i32, i32* %3, align 4
  %54 = sext i32 %53 to i64
  %55 = getelementptr inbounds [20 x i32], [20 x i32]* %6, i64 0, i64 %54
  %56 = load i32, i32* %55, align 4
  %57 = mul nsw i32 2, %56
  %58 = icmp eq i32 %52, %57
  br i1 %58, label %70, label %59

59:                                               ; preds = %48
  %60 = load i32, i32* %3, align 4
  %61 = sext i32 %60 to i64
  %62 = getelementptr inbounds [20 x i32], [20 x i32]* %6, i64 0, i64 %61
  %63 = load i32, i32* %62, align 4
  %64 = load i32, i32* %5, align 4
  %65 = sext i32 %64 to i64
  %66 = getelementptr inbounds [20 x i32], [20 x i32]* %6, i64 0, i64 %65
  %67 = load i32, i32* %66, align 4
  %68 = mul nsw i32 2, %67
  %69 = icmp eq i32 %63, %68
  br i1 %69, label %70, label %73

70:                                               ; preds = %59, %48
  %71 = load i32, i32* %4, align 4
  %72 = add nsw i32 %71, 1
  store i32 %72, i32* %4, align 4
  br label %73

73:                                               ; preds = %70, %59
  br label %74

74:                                               ; preds = %73
  %75 = load i32, i32* %3, align 4
  %76 = add nsw i32 %75, 1
  store i32 %76, i32* %3, align 4
  br label %42

77:                                               ; preds = %42
  br label %78

78:                                               ; preds = %77
  %79 = load i32, i32* %5, align 4
  %80 = add nsw i32 %79, 1
  store i32 %80, i32* %5, align 4
  br label %34

81:                                               ; preds = %34
  %82 = load i32, i32* %4, align 4
  %83 = call i32 (i8*, ...) @printf(i8* getelementptr inbounds ([4 x i8], [4 x i8]* @.str.1, i64 0, i64 0), i32 %82)
  store i32 0, i32* %4, align 4
  store i32 0, i32* %2, align 4
  br label %7

84:                                               ; preds = %7
  ret i32 0
}

declare dso_local i32 @__isoc99_scanf(i8*, ...) #1

declare dso_local i32 @printf(i8*, ...) #1


!llvm.module.flags = !{!0}
!llvm.ident = !{!1}

!0 = !{i32 1, !"wchar_size", i32 4}
!1 = !{!"clang version 10.0.0-4ubuntu1 "}
